; Function Attrs: mustprogress uwtable
define noundef zeroext i1 @_ZN3zmq15tcp_connecter_t11tune_socketEi(ptr noundef nonnull readonly align 8 captures(none) dereferenceable(1552) %0, i32 noundef %1) local_unnamed_addr #0 align 2 {
  %3 = tail call noundef i32 @_ZN3zmq15tune_tcp_socketEi(i32 noundef %1)
  %4 = getelementptr inbounds nuw i8, ptr %0, i64 496
  %5 = load i32, ptr %4, align 8, !tbaa !78
  %6 = getelementptr inbounds nuw i8, ptr %0, i64 500
  %7 = load i32, ptr %6, align 4, !tbaa !79
  %8 = getelementptr inbounds nuw i8, ptr %0, i64 504
  %9 = load i32, ptr %8, align 8, !tbaa !80
  %10 = getelementptr inbounds nuw i8, ptr %0, i64 508
  %11 = load i32, ptr %10, align 4, !tbaa !81
  %12 = tail call noundef i32 @_ZN3zmq19tune_tcp_keepalivesEiiiii(i32 noundef %1, i32 noundef %5, i32 noundef %7, i32 noundef %9, i32 noundef %11)
  %13 = or i32 %12, %3
  %14 = getelementptr inbounds nuw i8, ptr %0, i64 344
  %15 = load i32, ptr %14, align 8, !tbaa !82
  %16 = tail call noundef i32 @_ZN3zmq14tune_tcp_maxrtEii(i32 noundef %1, i32 noundef %15)
  %17 = or i32 %13, %16
  %18 = icmp eq i32 %17, 0
  ret i1 %18
}